target datalayout = "e-m:e-p270:32:32-p271:32:32-p272:64:64-i64:64-i128:128-f80:128-n8:16:32:64-S128"
target triple = "x86_64-pc-linux-gnu"

%struct.ZSTD_customMem = type { ptr, ptr, ptr }
%struct.ZSTD_frameParameters = type { i32, i32, i32 }
%struct.ZSTD_compressionParameters = type { i32, i32, i32, i32, i32, i32, i32 }
%struct.ZSTD_CCtx_params_s = type { i32, %struct.ZSTD_compressionParameters, %struct.ZSTD_frameParameters, i32, i32, i64, i32, i32, i32, i32, i64, i32, i32, %struct.ldmParams_t, i32, i32, i32, i32, i32, i32, i32, i64, i32, i32, %struct.ZSTD_customMem, i32, i32, ptr, ptr, i32 }
%struct.ldmParams_t = type { i32, i32, i32, i32, i32, i32 }

; Function Attrs: nounwind uwtable
define internal i32 @ZSTD_resolveExternalRepcodeSearch(i32 noundef %0, i32 noundef %1) #0 {
  %3 = alloca i32, align 4
  %4 = alloca i32, align 4
  %5 = alloca i32, align 4
  store i32 %0, ptr %4, align 4, !tbaa !53
  store i32 %1, ptr %5, align 4, !tbaa !53
  %6 = load i32, ptr %4, align 4, !tbaa !53
  %7 = icmp ne i32 %6, 0
  br i1 %7, label %8, label %10

8:                                                ; preds = %2
  %9 = load i32, ptr %4, align 4, !tbaa !53
  store i32 %9, ptr %3, align 4
  br label %15

10:                                               ; preds = %2
  %11 = load i32, ptr %5, align 4, !tbaa !53
  %12 = icmp slt i32 %11, 10
  br i1 %12, label %13, label %14

13:                                               ; preds = %10
  store i32 2, ptr %3, align 4
  br label %15

14:                                               ; preds = %10
  store i32 1, ptr %3, align 4
  br label %15

15:                                               ; preds = %14, %13, %8
  %16 = load i32, ptr %3, align 4
  ret i32 %16
}

; Function Attrs: nounwind uwtable
define internal i64 @ZSTD_resolveMaxBlockSize(i64 noundef %0) #0 {
  %2 = alloca i64, align 8
  %3 = alloca i64, align 8
  store i64 %0, ptr %3, align 8, !tbaa !3
  %4 = load i64, ptr %3, align 8, !tbaa !3
  %5 = icmp eq i64 %4, 0
  br i1 %5, label %6, label %7

6:                                                ; preds = %1
  store i64 131072, ptr %2, align 8
  br label %9

7:                                                ; preds = %1
  %8 = load i64, ptr %3, align 8, !tbaa !3
  store i64 %8, ptr %2, align 8
  br label %9

9:                                                ; preds = %7, %6
  %10 = load i64, ptr %2, align 8
  ret i64 %10
}

; Function Attrs: nounwind uwtable
define internal i32 @ZSTD_resolveExternalSequenceValidation(i32 noundef %0) #0 {
  %2 = alloca i32, align 4
  store i32 %0, ptr %2, align 4, !tbaa !53
  %3 = load i32, ptr %2, align 4, !tbaa !53
  ret i32 %3
}

; Function Attrs: nounwind uwtable
define internal i32 @ZSTD_resolveRowMatchFinderMode(i32 noundef %0, ptr noundef %1) #0 {
  %3 = alloca i32, align 4
  %4 = alloca i32, align 4
  %5 = alloca ptr, align 8
  store i32 %0, ptr %4, align 4, !tbaa !53
  store ptr %1, ptr %5, align 8, !tbaa !15
  %6 = load i32, ptr %4, align 4, !tbaa !53
  %7 = icmp ne i32 %6, 0
  br i1 %7, label %8, label %10

8:                                                ; preds = %2
  %9 = load i32, ptr %4, align 4, !tbaa !53
  store i32 %9, ptr %3, align 4
  br label %26

10:                                               ; preds = %2
  store i32 2, ptr %4, align 4, !tbaa !53
  %11 = load ptr, ptr %5, align 8, !tbaa !15
  %12 = getelementptr inbounds nuw %struct.ZSTD_compressionParameters, ptr %11, i32 0, i32 6
  %13 = load i32, ptr %12, align 4, !tbaa !89
  %14 = call i32 @ZSTD_rowMatchFinderSupported(i32 noundef %13)
  %15 = icmp ne i32 %14, 0
  br i1 %15, label %18, label %16

16:                                               ; preds = %10
  %17 = load i32, ptr %4, align 4, !tbaa !53
  store i32 %17, ptr %3, align 4
  br label %26

18:                                               ; preds = %10
  %19 = load ptr, ptr %5, align 8, !tbaa !15
  %20 = getelementptr inbounds nuw %struct.ZSTD_compressionParameters, ptr %19, i32 0, i32 0
  %21 = load i32, ptr %20, align 4, !tbaa !83
  %22 = icmp ugt i32 %21, 14
  br i1 %22, label %23, label %24

23:                                               ; preds = %18
  store i32 1, ptr %4, align 4, !tbaa !53
  br label %24

24:                                               ; preds = %23, %18
  %25 = load i32, ptr %4, align 4, !tbaa !53
  store i32 %25, ptr %3, align 4
  br label %26

26:                                               ; preds = %24, %16, %8
  %27 = load i32, ptr %3, align 4
  ret i32 %27
}

; Function Attrs: nounwind uwtable
define internal i32 @ZSTD_resolveBlockSplitterMode(i32 noundef %0, ptr noundef %1) #0 {
  %3 = alloca i32, align 4
  %4 = alloca i32, align 4
  %5 = alloca ptr, align 8
  store i32 %0, ptr %4, align 4, !tbaa !53
  store ptr %1, ptr %5, align 8, !tbaa !15
  %6 = load i32, ptr %4, align 4, !tbaa !53
  %7 = icmp ne i32 %6, 0
  br i1 %7, label %8, label %10

8:                                                ; preds = %2
  %9 = load i32, ptr %4, align 4, !tbaa !53
  store i32 %9, ptr %3, align 4
  br label %23

10:                                               ; preds = %2
  %11 = load ptr, ptr %5, align 8, !tbaa !15
  %12 = getelementptr inbounds nuw %struct.ZSTD_compressionParameters, ptr %11, i32 0, i32 6
  %13 = load i32, ptr %12, align 4, !tbaa !89
  %14 = icmp uge i32 %13, 7
  br i1 %14, label %15, label %20

15:                                               ; preds = %10
  %16 = load ptr, ptr %5, align 8, !tbaa !15
  %17 = getelementptr inbounds nuw %struct.ZSTD_compressionParameters, ptr %16, i32 0, i32 0
  %18 = load i32, ptr %17, align 4, !tbaa !83
  %19 = icmp uge i32 %18, 17
  br label %20

20:                                               ; preds = %15, %10
  %21 = phi i1 [ false, %10 ], [ %19, %15 ]
  %22 = select i1 %21, i32 1, i32 2
  store i32 %22, ptr %3, align 4
  br label %23

23:                                               ; preds = %20, %8
  %24 = load i32, ptr %3, align 4
  ret i32 %24
}

; Function Attrs: nounwind uwtable
define internal i32 @ZSTD_resolveEnableLdm(i32 noundef %0, ptr noundef %1) #0 {
  %3 = alloca i32, align 4
  %4 = alloca i32, align 4
  %5 = alloca ptr, align 8
  store i32 %0, ptr %4, align 4, !tbaa !53
  store ptr %1, ptr %5, align 8, !tbaa !15
  %6 = load i32, ptr %4, align 4, !tbaa !53
  %7 = icmp ne i32 %6, 0
  br i1 %7, label %8, label %10

8:                                                ; preds = %2
  %9 = load i32, ptr %4, align 4, !tbaa !53
  store i32 %9, ptr %3, align 4
  br label %23

10:                                               ; preds = %2
  %11 = load ptr, ptr %5, align 8, !tbaa !15
  %12 = getelementptr inbounds nuw %struct.ZSTD_compressionParameters, ptr %11, i32 0, i32 6
  %13 = load i32, ptr %12, align 4, !tbaa !89
  %14 = icmp uge i32 %13, 7
  br i1 %14, label %15, label %20

15:                                               ; preds = %10
  %16 = load ptr, ptr %5, align 8, !tbaa !15
  %17 = getelementptr inbounds nuw %struct.ZSTD_compressionParameters, ptr %16, i32 0, i32 0
  %18 = load i32, ptr %17, align 4, !tbaa !83
  %19 = icmp uge i32 %18, 27
  br label %20

20:                                               ; preds = %15, %10
  %21 = phi i1 [ false, %10 ], [ %19, %15 ]
  %22 = select i1 %21, i32 1, i32 2
  store i32 %22, ptr %3, align 4
  br label %23

23:                                               ; preds = %20, %8
  %24 = load i32, ptr %3, align 4
  ret i32 %24
}

; Function Attrs: nounwind uwtable
define i64 @ZSTD_CCtxParams_init(ptr noundef %0, i32 noundef %1) #0 {
  %3 = alloca i64, align 8
  %4 = alloca ptr, align 8
  %5 = alloca i32, align 4
  store ptr %0, ptr %4, align 8, !tbaa !79
  store i32 %1, ptr %5, align 4, !tbaa !53
  br label %6

6:                                                ; preds = %2
  %7 = load ptr, ptr %4, align 8, !tbaa !79
  %8 = icmp ne ptr %7, null
  br i1 %8, label %18, label %9

9:                                                ; preds = %6
  br label %10

10:                                               ; preds = %9
  br label %11

11:                                               ; preds = %10
  br label %12

12:                                               ; preds = %11
  br label %13

13:                                               ; preds = %12
  br label %14

14:                                               ; preds = %13
  br label %15

15:                                               ; preds = %14
  br label %16

16:                                               ; preds = %15
  br label %17

17:                                               ; preds = %16
  store i64 -1, ptr %3, align 8
  br label %27

18:                                               ; preds = %6
  br label %19

19:                                               ; preds = %18
  %20 = load ptr, ptr %4, align 8, !tbaa !79
  call void @llvm.memset.p0.i64(ptr align 8 %20, i8 0, i64 224, i1 false)
  %21 = load i32, ptr %5, align 4, !tbaa !53
  %22 = load ptr, ptr %4, align 8, !tbaa !79
  %23 = getelementptr inbounds nuw %struct.ZSTD_CCtx_params_s, ptr %22, i32 0, i32 3
  store i32 %21, ptr %23, align 4, !tbaa !81
  %24 = load ptr, ptr %4, align 8, !tbaa !79
  %25 = getelementptr inbounds nuw %struct.ZSTD_CCtx_params_s, ptr %24, i32 0, i32 2
  %26 = getelementptr inbounds nuw %struct.ZSTD_frameParameters, ptr %25, i32 0, i32 0
  store i32 1, ptr %26, align 8, !tbaa !82
  store i64 0, ptr %3, align 8
  br label %27

27:                                               ; preds = %19, %17
  %28 = load i64, ptr %3, align 8
  ret i64 %28
}

; Function Attrs: nounwind uwtable
define internal i32 @ZSTD_rowMatchFinderSupported(i32 noundef %0) #0 {
  %2 = alloca i32, align 4
  store i32 %0, ptr %2, align 4, !tbaa !53
  %3 = load i32, ptr %2, align 4, !tbaa !53
  %4 = icmp uge i32 %3, 3
  br i1 %4, label %5, label %8

5:                                                ; preds = %1
  %6 = load i32, ptr %2, align 4, !tbaa !53
  %7 = icmp ule i32 %6, 5
  br label %8

8:                                                ; preds = %5, %1
  %9 = phi i1 [ false, %1 ], [ %7, %5 ]
  %10 = zext i1 %9 to i32
  ret i32 %10
}

; Function Attrs: nounwind uwtable
define internal void @ZSTD_makeCCtxParamsFromCParams(ptr dead_on_unwind noalias writable sret(%struct.ZSTD_CCtx_params_s) align 8 %0, ptr noundef byval(%struct.ZSTD_compressionParameters) align 8 %1) #0 {
  %3 = call i64 @ZSTD_CCtxParams_init(ptr noundef %0, i32 noundef 3)
  %4 = getelementptr inbounds nuw %struct.ZSTD_CCtx_params_s, ptr %0, i32 0, i32 1
  call void @llvm.memcpy.p0.p0.i64(ptr align 4 %4, ptr align 8 %1, i64 28, i1 false), !tbaa.struct !90
  %5 = getelementptr inbounds nuw %struct.ZSTD_CCtx_params_s, ptr %0, i32 0, i32 13
  %6 = getelementptr inbounds nuw %struct.ldmParams_t, ptr %5, i32 0, i32 0
  %7 = load i32, ptr %6, align 8, !tbaa !94
  %8 = call i32 @ZSTD_resolveEnableLdm(i32 noundef %7, ptr noundef %1)
  %9 = getelementptr inbounds nuw %struct.ZSTD_CCtx_params_s, ptr %0, i32 0, i32 13
  %10 = getelementptr inbounds nuw %struct.ldmParams_t, ptr %9, i32 0, i32 0
  store i32 %8, ptr %10, align 8, !tbaa !94
  %11 = getelementptr inbounds nuw %struct.ZSTD_CCtx_params_s, ptr %0, i32 0, i32 13
  %12 = getelementptr inbounds nuw %struct.ldmParams_t, ptr %11, i32 0, i32 0
  %13 = load i32, ptr %12, align 8, !tbaa !94
  %14 = icmp eq i32 %13, 1
  br i1 %14, label %15, label %17

15:                                               ; preds = %2
  %16 = getelementptr inbounds nuw %struct.ZSTD_CCtx_params_s, ptr %0, i32 0, i32 13
  call void @ZSTD_ldm_adjustParameters(ptr noundef %16, ptr noundef %1)
  br label %17

17:                                               ; preds = %15, %2
  %18 = getelementptr inbounds nuw %struct.ZSTD_CCtx_params_s, ptr %0, i32 0, i32 19
  %19 = load i32, ptr %18, align 4, !tbaa !93
  %20 = call i32 @ZSTD_resolveBlockSplitterMode(i32 noundef %19, ptr noundef %1)
  %21 = getelementptr inbounds nuw %struct.ZSTD_CCtx_params_s, ptr %0, i32 0, i32 19
  store i32 %20, ptr %21, align 4, !tbaa !93
  %22 = getelementptr inbounds nuw %struct.ZSTD_CCtx_params_s, ptr %0, i32 0, i32 22
  %23 = load i32, ptr %22, align 8, !tbaa !92
  %24 = call i32 @ZSTD_resolveRowMatchFinderMode(i32 noundef %23, ptr noundef %1)
  %25 = getelementptr inbounds nuw %struct.ZSTD_CCtx_params_s, ptr %0, i32 0, i32 22
  store i32 %24, ptr %25, align 8, !tbaa !92
  %26 = getelementptr inbounds nuw %struct.ZSTD_CCtx_params_s, ptr %0, i32 0, i32 18
  %27 = load i32, ptr %26, align 8, !tbaa !95
  %28 = call i32 @ZSTD_resolveExternalSequenceValidation(i32 noundef %27)
  %29 = getelementptr inbounds nuw %struct.ZSTD_CCtx_params_s, ptr %0, i32 0, i32 18
  store i32 %28, ptr %29, align 8, !tbaa !95
  %30 = getelementptr inbounds nuw %struct.ZSTD_CCtx_params_s, ptr %0, i32 0, i32 21
  %31 = load i64, ptr %30, align 8, !tbaa !96
  %32 = call i64 @ZSTD_resolveMaxBlockSize(i64 noundef %31)
  %33 = getelementptr inbounds nuw %struct.ZSTD_CCtx_params_s, ptr %0, i32 0, i32 21
  store i64 %32, ptr %33, align 8, !tbaa !96
  %34 = getelementptr inbounds nuw %struct.ZSTD_CCtx_params_s, ptr %0, i32 0, i32 29
  %35 = load i32, ptr %34, align 8, !tbaa !97
  %36 = getelementptr inbounds nuw %struct.ZSTD_CCtx_params_s, ptr %0, i32 0, i32 3
  %37 = load i32, ptr %36, align 4, !tbaa !81
  %38 = call i32 @ZSTD_resolveExternalRepcodeSearch(i32 noundef %35, i32 noundef %37)
  %39 = getelementptr inbounds nuw %struct.ZSTD_CCtx_params_s, ptr %0, i32 0, i32 29
  store i32 %38, ptr %39, align 8, !tbaa !97
  ret void
}

; Function Attrs: nounwind uwtable
define i64 @ZSTD_estimateCStreamSize_usingCParams(ptr noundef byval(%struct.ZSTD_compressionParameters) align 8 %0) #0 {
  %2 = alloca i64, align 8
  %3 = alloca %struct.ZSTD_CCtx_params_s, align 8
  %4 = alloca i64, align 8
  %5 = alloca i64, align 8
  %6 = alloca i32, align 4
  call void @llvm.lifetime.start.p0(i64 224, ptr %3) #15
  call void @ZSTD_makeCCtxParamsFromCParams(ptr dead_on_unwind writable sret(%struct.ZSTD_CCtx_params_s) align 8 %3, ptr noundef byval(%struct.ZSTD_compressionParameters) align 8 %0)
  %7 = getelementptr inbounds nuw %struct.ZSTD_compressionParameters, ptr %0, i32 0, i32 6
  %8 = load i32, ptr %7, align 8, !tbaa !89
  %9 = call i32 @ZSTD_rowMatchFinderSupported(i32 noundef %8)
  %10 = icmp ne i32 %9, 0
  br i1 %10, label %11, label %25

11:                                               ; preds = %1
  call void @llvm.lifetime.start.p0(i64 8, ptr %4) #15
  call void @llvm.lifetime.start.p0(i64 8, ptr %5) #15
  %12 = getelementptr inbounds nuw %struct.ZSTD_CCtx_params_s, ptr %3, i32 0, i32 22
  store i32 2, ptr %12, align 8, !tbaa !92
  %13 = call i64 @ZSTD_estimateCStreamSize_usingCCtxParams(ptr noundef %3)
  store i64 %13, ptr %4, align 8, !tbaa !3
  %14 = getelementptr inbounds nuw %struct.ZSTD_CCtx_params_s, ptr %3, i32 0, i32 22
  store i32 1, ptr %14, align 8, !tbaa !92
  %15 = call i64 @ZSTD_estimateCStreamSize_usingCCtxParams(ptr noundef %3)
  store i64 %15, ptr %5, align 8, !tbaa !3
  %16 = load i64, ptr %4, align 8, !tbaa !3
  %17 = load i64, ptr %5, align 8, !tbaa !3
  %18 = icmp ugt i64 %16, %17
  br i1 %18, label %19, label %21

19:                                               ; preds = %11
  %20 = load i64, ptr %4, align 8, !tbaa !3
  br label %23

21:                                               ; preds = %11
  %22 = load i64, ptr %5, align 8, !tbaa !3
  br label %23

23:                                               ; preds = %21, %19
  %24 = phi i64 [ %20, %19 ], [ %22, %21 ]
  store i64 %24, ptr %2, align 8
  store i32 1, ptr %6, align 4
  call void @llvm.lifetime.end.p0(i64 8, ptr %5) #15
  call void @llvm.lifetime.end.p0(i64 8, ptr %4) #15
  br label %27

25:                                               ; preds = %1
  %26 = call i64 @ZSTD_estimateCStreamSize_usingCCtxParams(ptr noundef %3)
  store i64 %26, ptr %2, align 8
  store i32 1, ptr %6, align 4
  br label %27

27:                                               ; preds = %25, %23
  call void @llvm.lifetime.end.p0(i64 224, ptr %3) #15
  %28 = load i64, ptr %2, align 8
  ret i64 %28
}