; Function Attrs: nounwind uwtable
define i64 @ZSTD_estimateCStreamSize_usingCParams(ptr noundef readonly byval(%struct.ZSTD_compressionParameters) align 8 captures(none) %0) local_unnamed_addr #2 {
  %2 = alloca %struct.ZSTD_compressionParameters, align 8
  %3 = alloca %struct.ZSTD_CCtx_params_s, align 8
  call void @llvm.lifetime.start.p0(i64 224, ptr nonnull %3) #28
  tail call void @llvm.experimental.noalias.scope.decl(metadata !142)
  call void @llvm.lifetime.start.p0(i64 28, ptr nonnull %2)
  call void @llvm.memcpy.p0.p0.i64(ptr noundef nonnull align 8 dereferenceable(28) %2, ptr noundef nonnull align 8 dereferenceable(28) %0, i64 28, i1 false)
  call void @llvm.memset.p0.i64(ptr noundef nonnull align 8 dereferenceable(224) %3, i8 0, i64 224, i1 false), !alias.scope !142
  %4 = getelementptr inbounds nuw i8, ptr %3, i64 44
  store i32 3, ptr %4, align 4, !tbaa !43, !alias.scope !142
  %5 = getelementptr inbounds nuw i8, ptr %3, i64 32
  store i32 1, ptr %5, align 8, !tbaa !44, !alias.scope !142
  %6 = getelementptr inbounds nuw i8, ptr %3, i64 4
  call void @llvm.memcpy.p0.p0.i64(ptr noundef nonnull align 4 dereferenceable(28) %6, ptr noundef nonnull align 8 dereferenceable(28) %0, i64 28, i1 false)
  %7 = getelementptr inbounds nuw i8, ptr %3, i64 96
  %8 = getelementptr inbounds nuw i8, ptr %2, i64 24
  %9 = load i32, ptr %8, align 8, !tbaa !73, !noalias !142
  %10 = icmp ugt i32 %9, 6
  %11 = load i32, ptr %2, align 8, !noalias !142
  %12 = icmp ugt i32 %11, 26
  %or.cond.i = select i1 %10, i1 %12, i1 false
  br i1 %or.cond.i, label %14, label %.thread.i

.thread.i:                                        ; preds = %1
  store i32 2, ptr %7, align 8, !tbaa !78, !alias.scope !142
  %13 = getelementptr inbounds nuw i8, ptr %3, i64 140
  br label %15

14:                                               ; preds = %1
  store i32 1, ptr %7, align 8, !tbaa !78, !alias.scope !142
  call void @ZSTD_ldm_adjustParameters(ptr noundef nonnull %7, ptr noundef nonnull align 8 %2) #28
  %.phi.trans.insert.i = getelementptr inbounds nuw i8, ptr %3, i64 140
  %.pre.i = load i32, ptr %.phi.trans.insert.i, align 4, !tbaa !77, !alias.scope !142
  %.not.i1.i = icmp eq i32 %.pre.i, 0
  br i1 %.not.i1.i, label %._crit_edge, label %ZSTD_resolveBlockSplitterMode.exit.i

._crit_edge:                                      ; preds = %14
  %.pre = load i32, ptr %8, align 8, !tbaa !73, !noalias !142
  br label %15

15:                                               ; preds = %._crit_edge, %.thread.i
  %16 = phi i32 [ %9, %.thread.i ], [ %.pre, %._crit_edge ]
  %17 = phi ptr [ %13, %.thread.i ], [ %.phi.trans.insert.i, %._crit_edge ]
  %18 = icmp ugt i32 %16, 6
  br i1 %18, label %19, label %ZSTD_resolveBlockSplitterMode.exit.i

19:                                               ; preds = %15
  %20 = load i32, ptr %2, align 8, !tbaa !68, !noalias !142
  %21 = icmp ugt i32 %20, 16
  %22 = select i1 %21, i32 1, i32 2
  br label %ZSTD_resolveBlockSplitterMode.exit.i

ZSTD_resolveBlockSplitterMode.exit.i:             ; preds = %19, %15, %14
  %23 = phi ptr [ %.phi.trans.insert.i, %14 ], [ %17, %15 ], [ %17, %19 ]
  %.0.i2.i = phi i32 [ %.pre.i, %14 ], [ 2, %15 ], [ %22, %19 ]
  store i32 %.0.i2.i, ptr %23, align 4, !tbaa !77, !alias.scope !142
  %24 = getelementptr inbounds nuw i8, ptr %3, i64 160
  %25 = load i32, ptr %24, align 8, !tbaa !76, !alias.scope !142
  %.not.i3.i = icmp eq i32 %25, 0
  br i1 %.not.i3.i, label %26, label %ZSTD_makeCCtxParamsFromCParams.exit

26:                                               ; preds = %ZSTD_resolveBlockSplitterMode.exit.i
  %27 = load i32, ptr %8, align 8, !tbaa !73, !noalias !142
  %28 = add i32 %27, -6
  %29 = icmp ult i32 %28, -3
  br i1 %29, label %ZSTD_makeCCtxParamsFromCParams.exit, label %30

30:                                               ; preds = %26
  %31 = load i32, ptr %2, align 8, !tbaa !68, !noalias !142
  %32 = icmp ugt i32 %31, 14
  %spec.select.i.i = select i1 %32, i32 1, i32 2
  br label %ZSTD_makeCCtxParamsFromCParams.exit

ZSTD_makeCCtxParamsFromCParams.exit:              ; preds = %ZSTD_resolveBlockSplitterMode.exit.i, %26, %30
  %.0.i4.i = phi i32 [ %spec.select.i.i, %30 ], [ %25, %ZSTD_resolveBlockSplitterMode.exit.i ], [ 2, %26 ]
  store i32 %.0.i4.i, ptr %24, align 8, !tbaa !76, !alias.scope !142
  %33 = getelementptr inbounds nuw i8, ptr %3, i64 152
  %34 = load i64, ptr %33, align 8, !tbaa !79, !alias.scope !142
  %35 = icmp eq i64 %34, 0
  %..i.i = select i1 %35, i64 131072, i64 %34
  store i64 %..i.i, ptr %33, align 8, !tbaa !79, !alias.scope !142
  %36 = getelementptr inbounds nuw i8, ptr %3, i64 216
  %37 = load i32, ptr %36, align 8, !tbaa !80, !alias.scope !142
  %38 = load i32, ptr %4, align 4, !tbaa !43, !alias.scope !142
  %.not.i5.i = icmp eq i32 %37, 0
  %39 = icmp slt i32 %38, 10
  %..i6.i = select i1 %39, i32 2, i32 1
  %.0.i7.i = select i1 %.not.i5.i, i32 %..i6.i, i32 %37
  store i32 %.0.i7.i, ptr %36, align 8, !tbaa !80, !alias.scope !142
  call void @llvm.lifetime.end.p0(i64 28, ptr nonnull %2)
  %40 = getelementptr inbounds nuw i8, ptr %0, i64 24
  %41 = load i32, ptr %40, align 8, !tbaa !73
  %42 = add i32 %41, -6
  %43 = icmp ult i32 %42, -3
  br i1 %43, label %48, label %44

44:                                               ; preds = %ZSTD_makeCCtxParamsFromCParams.exit
  store i32 2, ptr %24, align 8, !tbaa !76
  %45 = call i64 @ZSTD_estimateCStreamSize_usingCCtxParams(ptr noundef nonnull %3)
  store i32 1, ptr %24, align 8, !tbaa !76
  %46 = call i64 @ZSTD_estimateCStreamSize_usingCCtxParams(ptr noundef nonnull %3)
  %47 = call i64 @llvm.umax.i64(i64 %45, i64 %46)
  br label %50

48:                                               ; preds = %ZSTD_makeCCtxParamsFromCParams.exit
  %49 = call i64 @ZSTD_estimateCStreamSize_usingCCtxParams(ptr noundef nonnull %3)
  br label %50

50:                                               ; preds = %48, %44
  %.0 = phi i64 [ %47, %44 ], [ %49, %48 ]
  call void @llvm.lifetime.end.p0(i64 224, ptr nonnull %3) #28
  ret i64 %.0
}